; Function Attrs: nofree norecurse nosync nounwind memory(readwrite, inaccessiblemem: none) uwtable
define internal void @draw_htext16(ptr noundef readonly captures(none) %0, i32 noundef %1, i32 noundef %2, i32 noundef %3, float noundef %4, float noundef %5, ptr noundef readonly captures(none) %6, ptr noundef readonly captures(none) %7) #6 {
  %9 = getelementptr inbounds nuw i8, ptr %0, i64 64
  %10 = sext i32 %1 to i64
  br label %11

11:                                               ; preds = %8, %._crit_edge
  %indvars.iv52 = phi i64 [ 0, %8 ], [ %indvars.iv.next53, %._crit_edge ]
  %12 = getelementptr inbounds nuw [8 x ptr], ptr %0, i64 0, i64 %indvars.iv52
  %13 = load ptr, ptr %12, align 8, !tbaa !71
  %.not = icmp eq ptr %13, null
  br i1 %.not, label %.critedge, label %.preheader43

.preheader43:                                     ; preds = %11
  %14 = load i8, ptr %6, align 1, !tbaa !62
  %.not4048 = icmp eq i8 %14, 0
  br i1 %.not4048, label %._crit_edge, label %.lr.ph

.lr.ph:                                           ; preds = %.preheader43
  %15 = getelementptr inbounds nuw i8, ptr %7, i64 %indvars.iv52
  %16 = getelementptr inbounds nuw [8 x i32], ptr %9, i64 0, i64 %indvars.iv52
  %17 = load i32, ptr %16, align 4, !tbaa !44
  %18 = mul nsw i32 %17, %2
  %19 = sext i32 %18 to i64
  %20 = getelementptr inbounds i8, ptr %13, i64 %19
  %21 = sdiv i32 %17, 2
  %22 = sext i32 %21 to i64
  %invariant.gep = getelementptr i16, ptr %20, i64 %10
  br label %23

23:                                               ; preds = %.lr.ph, %52
  %indvars.iv = phi i64 [ 0, %.lr.ph ], [ %indvars.iv.next, %52 ]
  %24 = getelementptr inbounds nuw i8, ptr %6, i64 %indvars.iv
  %25 = load i8, ptr %15, align 1, !tbaa !62
  %26 = zext i8 %25 to i32
  %27 = mul nsw i32 %3, %26
  %.idx = shl i64 %indvars.iv, 4
  %gep = getelementptr i8, ptr %invariant.gep, i64 %.idx
  %28 = sitofp i32 %27 to float
  %29 = fmul nsz float %4, %28
  br label %.preheader

.preheader:                                       ; preds = %23, %48
  %.047 = phi ptr [ %gep, %23 ], [ %50, %48 ]
  %.03846 = phi i32 [ 0, %23 ], [ %51, %48 ]
  br label %30

30:                                               ; preds = %.preheader, %45
  %.145 = phi ptr [ %.047, %.preheader ], [ %46, %45 ]
  %.03744 = phi i32 [ 128, %.preheader ], [ %47, %45 ]
  %31 = load i8, ptr %24, align 1, !tbaa !62
  %32 = sext i8 %31 to i32
  %33 = shl nsw i32 %32, 3
  %34 = add nuw nsw i32 %33, %.03846
  %35 = sext i32 %34 to i64
  %36 = getelementptr inbounds i8, ptr @avpriv_cga_font, i64 %35
  %37 = load i8, ptr %36, align 1, !tbaa !62
  %38 = zext i8 %37 to i32
  %39 = and i32 %.03744, %38
  %.not42 = icmp eq i32 %39, 0
  br i1 %.not42, label %45, label %40

40:                                               ; preds = %30
  %41 = load i16, ptr %.145, align 2, !tbaa !72
  %42 = uitofp i16 %41 to float
  %43 = tail call nsz float @llvm.fmuladd.f32(float %42, float %5, float %29)
  %44 = fptoui float %43 to i16
  store i16 %44, ptr %.145, align 2, !tbaa !72
  br label %45

45:                                               ; preds = %40, %30
  %46 = getelementptr inbounds nuw i8, ptr %.145, i64 2
  %47 = lshr i32 %.03744, 1
  %.not41 = icmp samesign ult i32 %.03744, 2
  br i1 %.not41, label %48, label %30, !llvm.loop !255

48:                                               ; preds = %45
  %49 = getelementptr i16, ptr %46, i64 %22
  %50 = getelementptr i8, ptr %49, i64 -16
  %51 = add nuw nsw i32 %.03846, 1
  %exitcond.not = icmp eq i32 %51, 8
  br i1 %exitcond.not, label %52, label %.preheader, !llvm.loop !256

52:                                               ; preds = %48
  %indvars.iv.next = add nuw nsw i64 %indvars.iv, 1
  %53 = getelementptr inbounds nuw i8, ptr %6, i64 %indvars.iv.next
  %54 = load i8, ptr %53, align 1, !tbaa !62
  %.not40 = icmp eq i8 %54, 0
  br i1 %.not40, label %._crit_edge, label %23, !llvm.loop !257

._crit_edge:                                      ; preds = %52, %.preheader43
  %indvars.iv.next53 = add nuw nsw i64 %indvars.iv52, 1
  %exitcond55.not = icmp eq i64 %indvars.iv.next53, 4
  br i1 %exitcond55.not, label %.critedge, label %11, !llvm.loop !258

.critedge:                                        ; preds = %._crit_edge, %11
  ret void
}